target datalayout = "e-m:e-p270:32:32-p271:32:32-p272:64:64-i64:64-i128:128-f80:128-n8:16:32:64-S128"
target triple = "x86_64-pc-linux-gnu"

%class.GrowableCache = type { ptr, ptr, ptr, ptr }
%class.GrowableArrayBase = type { i32, i32 }
%class.GrowableArrayView = type { %class.GrowableArrayBase, ptr }
%class.anon = type { ptr }

; Function Attrs: mustprogress nounwind uwtable
define internal noundef zeroext i1 @"_ZZNK13GrowableCache4findEPK15GrowableElementENK3$_0clES2_"(ptr noundef nonnull align 8 dereferenceable(8) %0, ptr noundef %1) #1 align 2 {
  %3 = alloca ptr, align 8
  %4 = alloca ptr, align 8
  store ptr %0, ptr %3, align 8
  store ptr %1, ptr %4, align 8
  %5 = load ptr, ptr %3, align 8
  %6 = getelementptr inbounds %class.anon, ptr %5, i32 0, i32 0
  %7 = load ptr, ptr %6, align 8
  %8 = load ptr, ptr %7, align 8
  %9 = load ptr, ptr %4, align 8
  %10 = load ptr, ptr %8, align 8
  %11 = getelementptr inbounds ptr, ptr %10, i64 3
  %12 = load ptr, ptr %11, align 8
  %13 = call noundef zeroext i1 %12(ptr noundef nonnull align 8 dereferenceable(8) %8, ptr noundef %9)
  ret i1 %13
}

; Function Attrs: mustprogress nounwind uwtable
define internal noundef i32 @"_ZNK17GrowableArrayViewIP15GrowableElementE7find_ifIZNK13GrowableCache4findEPKS0_E3$_0EEiT_"(ptr noundef nonnull align 8 dereferenceable(16) %0, ptr %1) #1 align 2 {
  %3 = alloca i32, align 4
  %4 = alloca %class.anon, align 8
  %5 = alloca ptr, align 8
  %6 = alloca i32, align 4
  %7 = getelementptr inbounds %class.anon, ptr %4, i32 0, i32 0
  store ptr %1, ptr %7, align 8
  store ptr %0, ptr %5, align 8
  %8 = load ptr, ptr %5, align 8
  store i32 0, ptr %6, align 4
  br label %9

9:                                                ; preds = %25, %2
  %10 = load i32, ptr %6, align 4
  %11 = getelementptr inbounds %class.GrowableArrayBase, ptr %8, i32 0, i32 0
  %12 = load i32, ptr %11, align 8
  %13 = icmp slt i32 %10, %12
  br i1 %13, label %14, label %28

14:                                               ; preds = %9
  %15 = getelementptr inbounds %class.GrowableArrayView, ptr %8, i32 0, i32 1
  %16 = load ptr, ptr %15, align 8
  %17 = load i32, ptr %6, align 4
  %18 = sext i32 %17 to i64
  %19 = getelementptr inbounds ptr, ptr %16, i64 %18
  %20 = load ptr, ptr %19, align 8
  %21 = call noundef zeroext i1 @"_ZZNK13GrowableCache4findEPK15GrowableElementENK3$_0clES2_"(ptr noundef nonnull align 8 dereferenceable(8) %4, ptr noundef %20)
  br i1 %21, label %22, label %24

22:                                               ; preds = %14
  %23 = load i32, ptr %6, align 4
  store i32 %23, ptr %3, align 4
  br label %29

24:                                               ; preds = %14
  br label %25

25:                                               ; preds = %24
  %26 = load i32, ptr %6, align 4
  %27 = add nsw i32 %26, 1
  store i32 %27, ptr %6, align 4
  br label %9, !llvm.loop !9

28:                                               ; preds = %9
  store i32 -1, ptr %3, align 4
  br label %29

29:                                               ; preds = %28, %22
  %30 = load i32, ptr %3, align 4
  ret i32 %30
}

; Function Attrs: mustprogress nounwind uwtable
define hidden noundef i32 @_ZNK13GrowableCache4findEPK15GrowableElement(ptr noundef nonnull align 8 dereferenceable(32) %0, ptr noundef %1) #1 align 2 {
  %3 = alloca ptr, align 8
  %4 = alloca ptr, align 8
  %5 = alloca %class.anon, align 8
  store ptr %0, ptr %3, align 8
  store ptr %1, ptr %4, align 8
  %6 = load ptr, ptr %3, align 8
  %7 = getelementptr inbounds %class.GrowableCache, ptr %6, i32 0, i32 1
  %8 = load ptr, ptr %7, align 8
  %9 = getelementptr inbounds %class.anon, ptr %5, i32 0, i32 0
  store ptr %4, ptr %9, align 8
  %10 = getelementptr inbounds %class.anon, ptr %5, i32 0, i32 0
  %11 = load ptr, ptr %10, align 8
  %12 = call noundef i32 @"_ZNK17GrowableArrayViewIP15GrowableElementE7find_ifIZNK13GrowableCache4findEPKS0_E3$_0EEiT_"(ptr noundef nonnull align 8 dereferenceable(16) %8, ptr %11)
  ret i32 %12
}