; Function Attrs: mustprogress nounwind uwtable
define hidden noundef i32 @_ZNK13GrowableCache4findEPK15GrowableElement(ptr nocapture noundef nonnull readonly align 8 dereferenceable(32) %0, ptr noundef %1) local_unnamed_addr #0 align 2 {
  %3 = getelementptr inbounds i8, ptr %0, i64 8
  %4 = load ptr, ptr %3, align 8
  %5 = load i32, ptr %4, align 8
  %6 = icmp sgt i32 %5, 0
  br i1 %6, label %.lr.ph.i, label %"_ZNK17GrowableArrayViewIP15GrowableElementE7find_ifIZNK13GrowableCache4findEPKS0_E3$_0EEiT_.exit"

.lr.ph.i:                                         ; preds = %2
  %7 = getelementptr inbounds i8, ptr %4, i64 8
  br label %8

8:                                                ; preds = %16, %.lr.ph.i
  %indvars.iv.i = phi i64 [ 0, %.lr.ph.i ], [ %indvars.iv.next.i, %16 ]
  %9 = load ptr, ptr %7, align 8
  %10 = getelementptr inbounds ptr, ptr %9, i64 %indvars.iv.i
  %11 = load ptr, ptr %10, align 8
  %12 = load ptr, ptr %1, align 8
  %13 = getelementptr inbounds i8, ptr %12, i64 24
  %14 = load ptr, ptr %13, align 8
  %15 = tail call noundef zeroext i1 %14(ptr noundef nonnull align 8 dereferenceable(8) %1, ptr noundef %11) #17
  br i1 %15, label %._crit_edge.loopexit.split.loop.exit10.i, label %16

16:                                               ; preds = %8
  %indvars.iv.next.i = add nuw nsw i64 %indvars.iv.i, 1
  %17 = load i32, ptr %4, align 8
  %18 = sext i32 %17 to i64
  %19 = icmp slt i64 %indvars.iv.next.i, %18
  br i1 %19, label %8, label %"_ZNK17GrowableArrayViewIP15GrowableElementE7find_ifIZNK13GrowableCache4findEPKS0_E3$_0EEiT_.exit", !llvm.loop !13

._crit_edge.loopexit.split.loop.exit10.i:         ; preds = %8
  %20 = trunc nuw nsw i64 %indvars.iv.i to i32
  br label %"_ZNK17GrowableArrayViewIP15GrowableElementE7find_ifIZNK13GrowableCache4findEPKS0_E3$_0EEiT_.exit"

"_ZNK17GrowableArrayViewIP15GrowableElementE7find_ifIZNK13GrowableCache4findEPKS0_E3$_0EEiT_.exit": ; preds = %16, %2, %._crit_edge.loopexit.split.loop.exit10.i
  %.05.i = phi i32 [ -1, %2 ], [ %20, %._crit_edge.loopexit.split.loop.exit10.i ], [ -1, %16 ]
  ret i32 %.05.i
}